target datalayout = "e-m:e-p270:32:32-p271:32:32-p272:64:64-i64:64-i128:128-f80:128-n8:16:32:64-S128"
target triple = "x86_64-pc-linux-gnu"

; Function Attrs: nounwind uwtable
define internal i32 @find_firstassertedcu(ptr noundef %0, ptr noundef %1, i32 noundef %2) #0 {
  %4 = alloca i32, align 4
  %5 = alloca ptr, align 8
  %6 = alloca ptr, align 8
  %7 = alloca i32, align 4
  %8 = alloca i32, align 4
  %9 = alloca i32, align 4
  %10 = alloca i32, align 4
  %11 = alloca i32, align 4
  %12 = alloca i32, align 4
  %13 = alloca ptr, align 8
  %14 = alloca i8, align 1
  store ptr %0, ptr %5, align 8
  store ptr %1, ptr %6, align 8
  store i32 %2, ptr %7, align 4
  store i32 0, ptr %8, align 4
  store i32 -2, ptr %9, align 4
  %15 = load ptr, ptr %6, align 8
  store i32 -2, ptr %15, align 4
  br label %16

16:                                               ; preds = %157, %3
  %17 = load ptr, ptr %5, align 8
  %18 = load i8, ptr %17, align 1
  %19 = zext i8 %18 to i32
  %20 = icmp eq i32 %19, 137
  br i1 %20, label %36, label %21

21:                                               ; preds = %16
  %22 = load ptr, ptr %5, align 8
  %23 = load i8, ptr %22, align 1
  %24 = zext i8 %23 to i32
  %25 = icmp eq i32 %24, 142
  br i1 %25, label %36, label %26

26:                                               ; preds = %21
  %27 = load ptr, ptr %5, align 8
  %28 = load i8, ptr %27, align 1
  %29 = zext i8 %28 to i32
  %30 = icmp eq i32 %29, 138
  br i1 %30, label %36, label %31

31:                                               ; preds = %26
  %32 = load ptr, ptr %5, align 8
  %33 = load i8, ptr %32, align 1
  %34 = zext i8 %33 to i32
  %35 = icmp eq i32 %34, 143
  br label %36

36:                                               ; preds = %31, %26, %21, %16
  %37 = phi i1 [ true, %26 ], [ true, %21 ], [ true, %16 ], [ %35, %31 ]
  %38 = select i1 %37, i32 2, i32 0
  store i32 %38, ptr %12, align 4
  %39 = load ptr, ptr %5, align 8
  %40 = getelementptr inbounds i8, ptr %39, i64 1
  %41 = getelementptr inbounds i8, ptr %40, i64 2
  %42 = load i32, ptr %12, align 4
  %43 = sext i32 %42 to i64
  %44 = getelementptr inbounds i8, ptr %41, i64 %43
  %45 = call ptr @first_significant_code(ptr noundef %44, i32 noundef 1)
  store ptr %45, ptr %13, align 8
  %46 = load ptr, ptr %13, align 8
  %47 = load i8, ptr %46, align 1
  store i8 %47, ptr %14, align 1
  %48 = load i8, ptr %14, align 1
  %49 = zext i8 %48 to i32
  switch i32 %49, label %50 [
    i32 135, label %51
    i32 136, label %51
    i32 137, label %51
    i32 142, label %51
    i32 138, label %51
    i32 143, label %51
    i32 127, label %51
    i32 131, label %51
    i32 133, label %51
    i32 134, label %51
    i32 41, label %86
    i32 29, label %89
    i32 35, label %89
    i32 36, label %89
    i32 43, label %89
    i32 54, label %111
    i32 30, label %114
    i32 48, label %114
    i32 49, label %114
    i32 56, label %114
  ]

50:                                               ; preds = %36
  store i32 0, ptr %4, align 4
  br label %166

51:                                               ; preds = %36, %36, %36, %36, %36, %36, %36, %36, %36, %36
  %52 = load ptr, ptr %13, align 8
  %53 = load i32, ptr %7, align 4
  %54 = load i8, ptr %14, align 1
  %55 = zext i8 %54 to i32
  %56 = icmp eq i32 %55, 127
  br i1 %56, label %61, label %57

57:                                               ; preds = %51
  %58 = load i8, ptr %14, align 1
  %59 = zext i8 %58 to i32
  %60 = icmp eq i32 %59, 131
  br label %61

61:                                               ; preds = %57, %51
  %62 = phi i1 [ true, %51 ], [ %60, %57 ]
  %63 = select i1 %62, i32 1, i32 0
  %64 = add i32 %53, %63
  %65 = call i32 @find_firstassertedcu(ptr noundef %52, ptr noundef %11, i32 noundef %64)
  store i32 %65, ptr %10, align 4
  %66 = load i32, ptr %11, align 4
  %67 = icmp uge i32 %66, -2
  br i1 %67, label %68, label %69

68:                                               ; preds = %61
  store i32 0, ptr %4, align 4
  br label %166

69:                                               ; preds = %61
  %70 = load i32, ptr %9, align 4
  %71 = icmp uge i32 %70, -2
  br i1 %71, label %72, label %75

72:                                               ; preds = %69
  %73 = load i32, ptr %10, align 4
  store i32 %73, ptr %8, align 4
  %74 = load i32, ptr %11, align 4
  store i32 %74, ptr %9, align 4
  br label %85

75:                                               ; preds = %69
  %76 = load i32, ptr %8, align 4
  %77 = load i32, ptr %10, align 4
  %78 = icmp ne i32 %76, %77
  br i1 %78, label %83, label %79

79:                                               ; preds = %75
  %80 = load i32, ptr %9, align 4
  %81 = load i32, ptr %11, align 4
  %82 = icmp ne i32 %80, %81
  br i1 %82, label %83, label %84

83:                                               ; preds = %79, %75
  store i32 0, ptr %4, align 4
  br label %166

84:                                               ; preds = %79
  br label %85

85:                                               ; preds = %84, %72
  br label %143

86:                                               ; preds = %36
  %87 = load ptr, ptr %13, align 8
  %88 = getelementptr inbounds i8, ptr %87, i64 2
  store ptr %88, ptr %13, align 8
  br label %89

89:                                               ; preds = %86, %36, %36, %36, %36
  %90 = load i32, ptr %7, align 4
  %91 = icmp eq i32 %90, 0
  br i1 %91, label %92, label %93

92:                                               ; preds = %89
  store i32 0, ptr %4, align 4
  br label %166

93:                                               ; preds = %89
  %94 = load i32, ptr %9, align 4
  %95 = icmp uge i32 %94, -2
  br i1 %95, label %96, label %101

96:                                               ; preds = %93
  %97 = load ptr, ptr %13, align 8
  %98 = getelementptr inbounds i8, ptr %97, i64 1
  %99 = load i8, ptr %98, align 1
  %100 = zext i8 %99 to i32
  store i32 %100, ptr %8, align 4
  store i32 0, ptr %9, align 4
  br label %110

101:                                              ; preds = %93
  %102 = load i32, ptr %8, align 4
  %103 = load ptr, ptr %13, align 8
  %104 = getelementptr inbounds i8, ptr %103, i64 1
  %105 = load i8, ptr %104, align 1
  %106 = zext i8 %105 to i32
  %107 = icmp ne i32 %102, %106
  br i1 %107, label %108, label %109

108:                                              ; preds = %101
  store i32 0, ptr %4, align 4
  br label %166

109:                                              ; preds = %101
  br label %110

110:                                              ; preds = %109, %96
  br label %143

111:                                              ; preds = %36
  %112 = load ptr, ptr %13, align 8
  %113 = getelementptr inbounds i8, ptr %112, i64 2
  store ptr %113, ptr %13, align 8
  br label %114

114:                                              ; preds = %111, %36, %36, %36, %36
  %115 = load i32, ptr %7, align 4
  %116 = icmp eq i32 %115, 0
  br i1 %116, label %117, label %118

117:                                              ; preds = %114
  store i32 0, ptr %4, align 4
  br label %166

118:                                              ; preds = %114
  %119 = load ptr, ptr %13, align 8
  %120 = getelementptr inbounds i8, ptr %119, i64 1
  %121 = load i8, ptr %120, align 1
  %122 = zext i8 %121 to i32
  %123 = icmp sge i32 %122, 128
  br i1 %123, label %124, label %125

124:                                              ; preds = %118
  store i32 0, ptr %4, align 4
  br label %166

125:                                              ; preds = %118
  %126 = load i32, ptr %9, align 4
  %127 = icmp uge i32 %126, -2
  br i1 %127, label %128, label %133

128:                                              ; preds = %125
  %129 = load ptr, ptr %13, align 8
  %130 = getelementptr inbounds i8, ptr %129, i64 1
  %131 = load i8, ptr %130, align 1
  %132 = zext i8 %131 to i32
  store i32 %132, ptr %8, align 4
  store i32 1, ptr %9, align 4
  br label %142

133:                                              ; preds = %125
  %134 = load i32, ptr %8, align 4
  %135 = load ptr, ptr %13, align 8
  %136 = getelementptr inbounds i8, ptr %135, i64 1
  %137 = load i8, ptr %136, align 1
  %138 = zext i8 %137 to i32
  %139 = icmp ne i32 %134, %138
  br i1 %139, label %140, label %141

140:                                              ; preds = %133
  store i32 0, ptr %4, align 4
  br label %166

141:                                              ; preds = %133
  br label %142

142:                                              ; preds = %141, %128
  br label %143

143:                                              ; preds = %142, %110, %85
  %144 = load ptr, ptr %5, align 8
  %145 = getelementptr inbounds i8, ptr %144, i64 1
  %146 = load i8, ptr %145, align 1
  %147 = zext i8 %146 to i32
  %148 = shl i32 %147, 8
  %149 = load ptr, ptr %5, align 8
  %150 = getelementptr inbounds i8, ptr %149, i64 2
  %151 = load i8, ptr %150, align 1
  %152 = zext i8 %151 to i32
  %153 = or i32 %148, %152
  %154 = load ptr, ptr %5, align 8
  %155 = zext i32 %153 to i64
  %156 = getelementptr inbounds i8, ptr %154, i64 %155
  store ptr %156, ptr %5, align 8
  br label %157

157:                                              ; preds = %143
  %158 = load ptr, ptr %5, align 8
  %159 = load i8, ptr %158, align 1
  %160 = zext i8 %159 to i32
  %161 = icmp eq i32 %160, 120
  br i1 %161, label %16, label %162

162:                                              ; preds = %157
  %163 = load i32, ptr %9, align 4
  %164 = load ptr, ptr %6, align 8
  store i32 %163, ptr %164, align 4
  %165 = load i32, ptr %8, align 4
  store i32 %165, ptr %4, align 4
  br label %166

166:                                              ; preds = %162, %140, %124, %117, %108, %92, %83, %68, %50
  %167 = load i32, ptr %4, align 4
  ret i32 %167
}