; Function Attrs: nofree nosync nounwind memory(readwrite, inaccessiblemem: none) uwtable
define internal fastcc i32 @find_firstassertedcu(ptr noundef %0, ptr nocapture noundef writeonly %1, i32 noundef %2) unnamed_addr #9 {
  %4 = alloca i32, align 4
  store i32 -2, ptr %1, align 4
  %.pr = load i8, ptr %0, align 1
  %5 = icmp eq i32 %2, 0
  br i1 %5, label %.split.us.split.us.preheader, label %.split.split.preheader

.split.split.preheader:                           ; preds = %3
  %6 = add i8 %.pr, 119
  br label %.split.split

.split.us.split.us.preheader:                     ; preds = %3
  %7 = add i8 %.pr, 119
  br label %.split.us.split.us

.split.us.split.us:                               ; preds = %.split.us.split.us.preheader, %27
  %switch.tableidx = phi i8 [ -17, %27 ], [ %7, %.split.us.split.us.preheader ]
  %.042.us.us = phi i32 [ %.143.us.us, %27 ], [ -2, %.split.us.split.us.preheader ]
  %.040.us.us = phi i32 [ %.141.us.us, %27 ], [ 0, %.split.us.split.us.preheader ]
  %.039.us.us = phi ptr [ %35, %27 ], [ %0, %.split.us.split.us.preheader ]
  %8 = icmp ult i8 %switch.tableidx, 7
  br i1 %8, label %switch.lookup, label %switch.edge.us.us

switch.lookup:                                    ; preds = %.split.us.split.us
  %9 = zext nneg i8 %switch.tableidx to i64
  %switch.gep = getelementptr inbounds [7 x i64], ptr @switch.table.find_firstassertedcu.1, i64 0, i64 %9
  %switch.load = load i64, ptr %switch.gep, align 8
  br label %switch.edge.us.us

switch.edge.us.us:                                ; preds = %switch.lookup, %.split.us.split.us
  %10 = phi i64 [ 0, %.split.us.split.us ], [ %switch.load, %switch.lookup ]
  %11 = getelementptr inbounds i8, ptr %.039.us.us, i64 1
  %12 = getelementptr inbounds i8, ptr %.039.us.us, i64 3
  %13 = getelementptr inbounds i8, ptr %12, i64 %10
  %14 = tail call fastcc ptr @first_significant_code(ptr noundef nonnull %13, i32 noundef 1)
  %15 = load i8, ptr %14, align 1
  switch i8 %15, label %.loopexit [
    i8 -121, label %16
    i8 -120, label %16
    i8 -119, label %16
    i8 -114, label %16
    i8 -118, label %16
    i8 -113, label %16
    i8 127, label %16
    i8 -125, label %16
    i8 -123, label %16
    i8 -122, label %16
  ]

16:                                               ; preds = %switch.edge.us.us, %switch.edge.us.us, %switch.edge.us.us, %switch.edge.us.us, %switch.edge.us.us, %switch.edge.us.us, %switch.edge.us.us, %switch.edge.us.us, %switch.edge.us.us, %switch.edge.us.us
  %17 = icmp eq i8 %15, 127
  %18 = icmp eq i8 %15, -125
  %19 = or i1 %17, %18
  %20 = zext i1 %19 to i32
  %21 = call fastcc i32 @find_firstassertedcu(ptr noundef nonnull %14, ptr noundef nonnull %4, i32 noundef %20), !range !6
  %22 = load i32, ptr %4, align 4
  %23 = icmp ugt i32 %22, -3
  br i1 %23, label %.loopexit, label %24

24:                                               ; preds = %16
  %25 = icmp ugt i32 %.042.us.us, -3
  br i1 %25, label %27, label %26

26:                                               ; preds = %24
  %.not48.us.us = icmp eq i32 %.040.us.us, %21
  %.not49.us.us = icmp eq i32 %.042.us.us, %22
  %or.cond.us.us = select i1 %.not48.us.us, i1 %.not49.us.us, i1 false
  br i1 %or.cond.us.us, label %27, label %.loopexit

27:                                               ; preds = %26, %24
  %.143.us.us = phi i32 [ %22, %24 ], [ %.042.us.us, %26 ]
  %.141.us.us = phi i32 [ %21, %24 ], [ %.040.us.us, %26 ]
  %28 = load i8, ptr %11, align 1
  %29 = zext i8 %28 to i64
  %30 = shl nuw nsw i64 %29, 8
  %31 = getelementptr inbounds i8, ptr %.039.us.us, i64 2
  %32 = load i8, ptr %31, align 1
  %33 = zext i8 %32 to i64
  %34 = or disjoint i64 %30, %33
  %35 = getelementptr inbounds i8, ptr %.039.us.us, i64 %34
  %36 = load i8, ptr %35, align 1
  %37 = icmp eq i8 %36, 120
  br i1 %37, label %.split.us.split.us, label %.split51.us

.split.split:                                     ; preds = %.split.split.preheader, %76
  %switch.tableidx96 = phi i8 [ -17, %76 ], [ %6, %.split.split.preheader ]
  %.042 = phi i32 [ %.143, %76 ], [ -2, %.split.split.preheader ]
  %.040 = phi i32 [ %.141, %76 ], [ 0, %.split.split.preheader ]
  %.039 = phi ptr [ %84, %76 ], [ %0, %.split.split.preheader ]
  %38 = icmp ult i8 %switch.tableidx96, 7
  br i1 %38, label %switch.lookup95, label %switch.edge

switch.lookup95:                                  ; preds = %.split.split
  %39 = zext nneg i8 %switch.tableidx96 to i64
  %switch.gep97 = getelementptr inbounds [7 x i64], ptr @switch.table.find_firstassertedcu.1, i64 0, i64 %39
  %switch.load98 = load i64, ptr %switch.gep97, align 8
  br label %switch.edge

switch.edge:                                      ; preds = %switch.lookup95, %.split.split
  %40 = phi i64 [ 0, %.split.split ], [ %switch.load98, %switch.lookup95 ]
  %41 = getelementptr inbounds i8, ptr %.039, i64 1
  %42 = getelementptr inbounds i8, ptr %.039, i64 3
  %43 = getelementptr inbounds i8, ptr %42, i64 %40
  %44 = tail call fastcc ptr @first_significant_code(ptr noundef nonnull %43, i32 noundef 1)
  %45 = load i8, ptr %44, align 1
  switch i8 %45, label %.loopexit [
    i8 -121, label %46
    i8 -120, label %46
    i8 -119, label %46
    i8 -114, label %46
    i8 -118, label %46
    i8 -113, label %46
    i8 127, label %46
    i8 -125, label %46
    i8 -123, label %46
    i8 -122, label %46
    i8 41, label %58
    i8 29, label %60
    i8 35, label %60
    i8 36, label %60
    i8 43, label %60
    i8 54, label %66
    i8 30, label %68
    i8 48, label %68
    i8 49, label %68
    i8 56, label %68
  ]

46:                                               ; preds = %switch.edge, %switch.edge, %switch.edge, %switch.edge, %switch.edge, %switch.edge, %switch.edge, %switch.edge, %switch.edge, %switch.edge
  %47 = icmp eq i8 %45, 127
  %48 = icmp eq i8 %45, -125
  %49 = or i1 %47, %48
  %50 = zext i1 %49 to i32
  %51 = add i32 %50, %2
  %52 = call fastcc i32 @find_firstassertedcu(ptr noundef nonnull %44, ptr noundef nonnull %4, i32 noundef %51), !range !6
  %53 = load i32, ptr %4, align 4
  %54 = icmp ugt i32 %53, -3
  br i1 %54, label %.loopexit, label %55

55:                                               ; preds = %46
  %56 = icmp ugt i32 %.042, -3
  br i1 %56, label %76, label %57

57:                                               ; preds = %55
  %.not48 = icmp eq i32 %.040, %52
  %.not49 = icmp eq i32 %.042, %53
  %or.cond = select i1 %.not48, i1 %.not49, i1 false
  br i1 %or.cond, label %76, label %.loopexit

58:                                               ; preds = %switch.edge
  %59 = getelementptr inbounds i8, ptr %44, i64 2
  br label %60

60:                                               ; preds = %58, %switch.edge, %switch.edge, %switch.edge, %switch.edge
  %.038 = phi ptr [ %44, %switch.edge ], [ %44, %switch.edge ], [ %44, %switch.edge ], [ %44, %switch.edge ], [ %59, %58 ]
  %61 = icmp ugt i32 %.042, -3
  %62 = getelementptr inbounds i8, ptr %.038, i64 1
  %63 = load i8, ptr %62, align 1
  %64 = zext i8 %63 to i32
  br i1 %61, label %76, label %65

65:                                               ; preds = %60
  %.not47 = icmp eq i32 %.040, %64
  br i1 %.not47, label %76, label %.loopexit

66:                                               ; preds = %switch.edge
  %67 = getelementptr inbounds i8, ptr %44, i64 2
  br label %68

68:                                               ; preds = %66, %switch.edge, %switch.edge, %switch.edge, %switch.edge
  %.1 = phi ptr [ %44, %switch.edge ], [ %44, %switch.edge ], [ %44, %switch.edge ], [ %44, %switch.edge ], [ %67, %66 ]
  %69 = getelementptr inbounds i8, ptr %.1, i64 1
  %70 = load i8, ptr %69, align 1
  %71 = zext i8 %70 to i32
  %72 = icmp slt i8 %70, 0
  br i1 %72, label %.loopexit, label %73

73:                                               ; preds = %68
  %74 = icmp ugt i32 %.042, -3
  br i1 %74, label %76, label %75

75:                                               ; preds = %73
  %.not = icmp eq i32 %.040, %71
  br i1 %.not, label %76, label %.loopexit

76:                                               ; preds = %60, %73, %57, %55, %75, %65
  %.143 = phi i32 [ %.042, %75 ], [ %.042, %65 ], [ %53, %55 ], [ %.042, %57 ], [ 1, %73 ], [ 0, %60 ]
  %.141 = phi i32 [ %.040, %75 ], [ %.040, %65 ], [ %52, %55 ], [ %.040, %57 ], [ %71, %73 ], [ %64, %60 ]
  %77 = load i8, ptr %41, align 1
  %78 = zext i8 %77 to i64
  %79 = shl nuw nsw i64 %78, 8
  %80 = getelementptr inbounds i8, ptr %.039, i64 2
  %81 = load i8, ptr %80, align 1
  %82 = zext i8 %81 to i64
  %83 = or disjoint i64 %79, %82
  %84 = getelementptr inbounds i8, ptr %.039, i64 %83
  %85 = load i8, ptr %84, align 1
  %86 = icmp eq i8 %85, 120
  br i1 %86, label %.split.split, label %.split51.us

.split51.us:                                      ; preds = %76, %27
  %.us-phi = phi i32 [ %.143.us.us, %27 ], [ %.143, %76 ]
  %.us-phi52 = phi i32 [ %.141.us.us, %27 ], [ %.141, %76 ]
  store i32 %.us-phi, ptr %1, align 4
  br label %.loopexit

.loopexit:                                        ; preds = %75, %68, %65, %57, %46, %switch.edge, %26, %16, %switch.edge.us.us, %.split51.us
  %.0 = phi i32 [ %.us-phi52, %.split51.us ], [ 0, %switch.edge.us.us ], [ 0, %16 ], [ 0, %26 ], [ 0, %switch.edge ], [ 0, %46 ], [ 0, %57 ], [ 0, %65 ], [ 0, %68 ], [ 0, %75 ]
  ret i32 %.0
}